target datalayout = "e-m:e-p270:32:32-p271:32:32-p272:64:64-i64:64-i128:128-f80:128-n8:16:32:64-S128"
target triple = "x86_64-pc-linux-gnu"

@.str.7 = private unnamed_addr constant [38 x i8] c"Using truth tables from file \22%s\22...\0A\00", align 1
@stdout = external global ptr, align 8

; Function Attrs: nounwind uwtable
define i32 @Abc_RpoTest(ptr noundef %0, i32 noundef %1, i32 noundef %2, i32 noundef %3) #0 {
  %5 = alloca ptr, align 8
  %6 = alloca i32, align 4
  %7 = alloca i32, align 4
  %8 = alloca i32, align 4
  store ptr %0, ptr %5, align 8, !tbaa !32
  store i32 %1, ptr %6, align 4, !tbaa !8
  store i32 %2, ptr %7, align 4, !tbaa !8
  store i32 %3, ptr %8, align 4, !tbaa !8
  %9 = load i32, ptr %8, align 4, !tbaa !8
  %10 = icmp ne i32 %9, 0
  br i1 %10, label %11, label %14

11:                                               ; preds = %4
  %12 = load ptr, ptr %5, align 8, !tbaa !32
  %13 = call i32 (ptr, ...) @printf(ptr noundef @.str.7, ptr noundef %12)
  br label %14

14:                                               ; preds = %11, %4
  %15 = load ptr, ptr %5, align 8, !tbaa !32
  %16 = load i32, ptr %6, align 4, !tbaa !8
  %17 = load i32, ptr %7, align 4, !tbaa !8
  %18 = load i32, ptr %8, align 4, !tbaa !8
  call void @Abc_TruthRpoTest(ptr noundef %15, i32 noundef %16, i32 noundef %17, i32 noundef %18)
  %19 = load ptr, ptr @stdout, align 8, !tbaa !33
  %20 = call i32 @fflush(ptr noundef %19)
  ret i32 0
}