; Function Attrs: nounwind uwtable
define noundef i32 @Abc_RpoTest(ptr noundef %0, i32 noundef %1, i32 noundef %2, i32 noundef %3) local_unnamed_addr #0 {
  %.not = icmp eq i32 %3, 0
  br i1 %.not, label %.split, label %.split6

.split6:                                          ; preds = %4
  %5 = tail call i32 (ptr, ...) @printf(ptr noundef nonnull dereferenceable(1) @.str.7, ptr noundef %0)
  br label %.split

.split:                                           ; preds = %4, %.split6
  %.sink = phi i32 [ %3, %.split6 ], [ 0, %4 ]
  tail call void @Abc_TruthRpoTest(ptr noundef %0, i32 noundef %1, i32 noundef %2, i32 noundef %.sink)
  %6 = load ptr, ptr @stdout, align 8, !tbaa !26
  %7 = tail call i32 @fflush(ptr noundef %6)
  ret i32 0
}